target datalayout = "e-m:e-p270:32:32-p271:32:32-p272:64:64-i64:64-i128:128-f80:128-n8:16:32:64-S128"
target triple = "x86_64-pc-linux-gnu"

%struct.SANMVideoContext = type { ptr, %struct.GetByteContext, i32, i32, i32, i32, [256 x i32], [768 x i16], i64, i32, i32, i32, i32, i32, ptr, ptr, ptr, ptr, ptr, ptr, i32, i32, i32, i32, i32, ptr, i32, i32, i64, i64, [256 x i16], [4 x i16], [256 x [16 x i8]], [256 x [64 x i8]], [65536 x i8], [256 x i8], [2 x [256 x [16 x i8]]], i16 }
%struct.GetByteContext = type { ptr, ptr, ptr }

; Function Attrs: nounwind uwtable
define internal void @init_sizes(ptr noundef %0, i32 noundef %1, i32 noundef %2) #1 {
  %4 = alloca ptr, align 8
  %5 = alloca i32, align 4
  %6 = alloca i32, align 4
  store ptr %0, ptr %4, align 8, !tbaa !29
  store i32 %1, ptr %5, align 4, !tbaa !44
  store i32 %2, ptr %6, align 4, !tbaa !44
  %7 = load i32, ptr %5, align 4, !tbaa !44
  %8 = load ptr, ptr %4, align 8, !tbaa !29
  %9 = getelementptr inbounds nuw %struct.SANMVideoContext, ptr %8, i32 0, i32 9
  store i32 %7, ptr %9, align 8, !tbaa !80
  %10 = load i32, ptr %6, align 4, !tbaa !44
  %11 = load ptr, ptr %4, align 8, !tbaa !29
  %12 = getelementptr inbounds nuw %struct.SANMVideoContext, ptr %11, i32 0, i32 10
  store i32 %10, ptr %12, align 4, !tbaa !81
  %13 = load i32, ptr %5, align 4, !tbaa !44
  %14 = load i32, ptr %6, align 4, !tbaa !44
  %15 = mul nsw i32 %13, %14
  %16 = sext i32 %15 to i64
  %17 = load ptr, ptr %4, align 8, !tbaa !29
  %18 = getelementptr inbounds nuw %struct.SANMVideoContext, ptr %17, i32 0, i32 28
  store i64 %16, ptr %18, align 8, !tbaa !75
  %19 = load i32, ptr %5, align 4, !tbaa !44
  %20 = add nsw i32 %19, 8
  %21 = sub nsw i32 %20, 1
  %22 = and i32 %21, -8
  %23 = load ptr, ptr %4, align 8, !tbaa !29
  %24 = getelementptr inbounds nuw %struct.SANMVideoContext, ptr %23, i32 0, i32 11
  store i32 %22, ptr %24, align 8, !tbaa !82
  %25 = load i32, ptr %6, align 4, !tbaa !44
  %26 = add nsw i32 %25, 8
  %27 = sub nsw i32 %26, 1
  %28 = and i32 %27, -8
  %29 = load ptr, ptr %4, align 8, !tbaa !29
  %30 = getelementptr inbounds nuw %struct.SANMVideoContext, ptr %29, i32 0, i32 12
  store i32 %28, ptr %30, align 4, !tbaa !83
  %31 = load ptr, ptr %4, align 8, !tbaa !29
  %32 = getelementptr inbounds nuw %struct.SANMVideoContext, ptr %31, i32 0, i32 11
  %33 = load i32, ptr %32, align 8, !tbaa !82
  %34 = load ptr, ptr %4, align 8, !tbaa !29
  %35 = getelementptr inbounds nuw %struct.SANMVideoContext, ptr %34, i32 0, i32 12
  %36 = load i32, ptr %35, align 4, !tbaa !83
  %37 = mul nsw i32 %33, %36
  %38 = sext i32 %37 to i64
  %39 = mul i64 %38, 2
  %40 = load ptr, ptr %4, align 8, !tbaa !29
  %41 = getelementptr inbounds nuw %struct.SANMVideoContext, ptr %40, i32 0, i32 29
  store i64 %39, ptr %41, align 8, !tbaa !61
  %42 = load i32, ptr %5, align 4, !tbaa !44
  %43 = sext i32 %42 to i64
  %44 = load ptr, ptr %4, align 8, !tbaa !29
  %45 = getelementptr inbounds nuw %struct.SANMVideoContext, ptr %44, i32 0, i32 8
  store i64 %43, ptr %45, align 8, !tbaa !84
  ret void
}

; Function Attrs: nounwind uwtable
define internal void @destroy_buffers(ptr noundef %0) #1 {
  %2 = alloca ptr, align 8
  store ptr %0, ptr %2, align 8, !tbaa !29
  %3 = load ptr, ptr %2, align 8, !tbaa !29
  %4 = getelementptr inbounds nuw %struct.SANMVideoContext, ptr %3, i32 0, i32 15
  call void @av_freep(ptr noundef %4)
  %5 = load ptr, ptr %2, align 8, !tbaa !29
  %6 = getelementptr inbounds nuw %struct.SANMVideoContext, ptr %5, i32 0, i32 16
  call void @av_freep(ptr noundef %6)
  %7 = load ptr, ptr %2, align 8, !tbaa !29
  %8 = getelementptr inbounds nuw %struct.SANMVideoContext, ptr %7, i32 0, i32 17
  call void @av_freep(ptr noundef %8)
  %9 = load ptr, ptr %2, align 8, !tbaa !29
  %10 = getelementptr inbounds nuw %struct.SANMVideoContext, ptr %9, i32 0, i32 18
  call void @av_freep(ptr noundef %10)
  %11 = load ptr, ptr %2, align 8, !tbaa !29
  %12 = getelementptr inbounds nuw %struct.SANMVideoContext, ptr %11, i32 0, i32 19
  call void @av_freep(ptr noundef %12)
  %13 = load ptr, ptr %2, align 8, !tbaa !29
  %14 = getelementptr inbounds nuw %struct.SANMVideoContext, ptr %13, i32 0, i32 25
  call void @av_freep(ptr noundef %14)
  %15 = load ptr, ptr %2, align 8, !tbaa !29
  %16 = getelementptr inbounds nuw %struct.SANMVideoContext, ptr %15, i32 0, i32 23
  store i32 0, ptr %16, align 4, !tbaa !93
  %17 = load ptr, ptr %2, align 8, !tbaa !29
  %18 = getelementptr inbounds nuw %struct.SANMVideoContext, ptr %17, i32 0, i32 22
  store i32 0, ptr %18, align 8, !tbaa !94
  %19 = load ptr, ptr %2, align 8, !tbaa !29
  %20 = getelementptr inbounds nuw %struct.SANMVideoContext, ptr %19, i32 0, i32 21
  store i32 0, ptr %20, align 4, !tbaa !95
  %21 = load ptr, ptr %2, align 8, !tbaa !29
  call void @init_sizes(ptr noundef %21, i32 noundef 0, i32 noundef 0)
  ret void
}