; Function Attrs: nounwind uwtable
define internal fastcc void @destroy_buffers(ptr noundef %0) unnamed_addr #1 {
  %2 = getelementptr inbounds nuw i8, ptr %0, i64 2648
  tail call void @av_freep(ptr noundef nonnull %2) #12
  %3 = getelementptr inbounds nuw i8, ptr %0, i64 2656
  tail call void @av_freep(ptr noundef nonnull %3) #12
  %4 = getelementptr inbounds nuw i8, ptr %0, i64 2664
  tail call void @av_freep(ptr noundef nonnull %4) #12
  %5 = getelementptr inbounds nuw i8, ptr %0, i64 2672
  tail call void @av_freep(ptr noundef nonnull %5) #12
  %6 = getelementptr inbounds nuw i8, ptr %0, i64 2680
  tail call void @av_freep(ptr noundef nonnull %6) #12
  %7 = getelementptr inbounds nuw i8, ptr %0, i64 2712
  tail call void @av_freep(ptr noundef nonnull %7) #12
  %8 = getelementptr inbounds nuw i8, ptr %0, i64 2700
  store i32 0, ptr %8, align 4, !tbaa !90
  %9 = getelementptr inbounds nuw i8, ptr %0, i64 2696
  store i32 0, ptr %9, align 8, !tbaa !91
  %10 = getelementptr inbounds nuw i8, ptr %0, i64 2692
  store i32 0, ptr %10, align 4, !tbaa !92
  %11 = getelementptr inbounds nuw i8, ptr %0, i64 2728
  %12 = getelementptr inbounds nuw i8, ptr %0, i64 2608
  tail call void @llvm.memset.p0.i64(ptr noundef nonnull align 8 dereferenceable(24) %12, i8 0, i64 24, i1 false)
  tail call void @llvm.memset.p0.i64(ptr noundef nonnull align 8 dereferenceable(16) %11, i8 0, i64 16, i1 false)
  ret void
}